; Function Attrs: nounwind uwtable
define ptr @l_Lean_Meta_Grind_Arith_CommRing_Stepwise_mkExprDecl___lambda__1___boxed(ptr noundef %0, ptr noundef %1, ptr noundef %2, ptr noundef %3, ptr noundef %4, ptr noundef %5, ptr noundef %6, ptr noundef %7, ptr noundef %8, ptr noundef %9, ptr noundef %10, ptr noundef %11, ptr noundef %12, ptr noundef %13) local_unnamed_addr #1 {
  %15 = tail call ptr @l_Lean_Meta_Grind_Arith_CommRing_Stepwise_mkExprDecl___lambda__1(ptr noundef %0, ptr poison, ptr poison, ptr noundef %3, ptr poison, ptr poison, ptr poison, ptr poison, ptr poison, ptr poison, ptr poison, ptr poison, ptr noundef %12, ptr noundef %13)
  %16 = ptrtoint ptr %12 to i64
  %17 = and i64 %16, 1
  %.not = icmp eq i64 %17, 0
  br i1 %.not, label %18, label %lean_dec.exit37

18:                                               ; preds = %14
  %19 = load i32, ptr %12, align 4, !tbaa !6
  %20 = icmp sgt i32 %19, 1
  br i1 %20, label %21, label %23, !prof !5

21:                                               ; preds = %18
  %22 = add nsw i32 %19, -1
  store i32 %22, ptr %12, align 4, !tbaa !6
  br label %lean_dec.exit37

23:                                               ; preds = %18
  %.not.i = icmp eq i32 %19, 0
  br i1 %.not.i, label %lean_dec.exit37, label %24

24:                                               ; preds = %23
  tail call void @lean_dec_ref_cold(ptr noundef nonnull %12) #6
  br label %lean_dec.exit37

lean_dec.exit37:                                  ; preds = %24, %23, %21, %14
  %25 = ptrtoint ptr %11 to i64
  %26 = and i64 %25, 1
  %.not60 = icmp eq i64 %26, 0
  br i1 %.not60, label %27, label %lean_dec.exit36

27:                                               ; preds = %lean_dec.exit37
  %28 = load i32, ptr %11, align 4, !tbaa !6
  %29 = icmp sgt i32 %28, 1
  br i1 %29, label %30, label %32, !prof !5

30:                                               ; preds = %27
  %31 = add nsw i32 %28, -1
  store i32 %31, ptr %11, align 4, !tbaa !6
  br label %lean_dec.exit36

32:                                               ; preds = %27
  %.not.i38 = icmp eq i32 %28, 0
  br i1 %.not.i38, label %lean_dec.exit36, label %33

33:                                               ; preds = %32
  tail call void @lean_dec_ref_cold(ptr noundef nonnull %11) #6
  br label %lean_dec.exit36

lean_dec.exit36:                                  ; preds = %33, %32, %30, %lean_dec.exit37
  %34 = ptrtoint ptr %10 to i64
  %35 = and i64 %34, 1
  %.not61 = icmp eq i64 %35, 0
  br i1 %.not61, label %36, label %lean_dec.exit35

36:                                               ; preds = %lean_dec.exit36
  %37 = load i32, ptr %10, align 4, !tbaa !6
  %38 = icmp sgt i32 %37, 1
  br i1 %38, label %39, label %41, !prof !5

39:                                               ; preds = %36
  %40 = add nsw i32 %37, -1
  store i32 %40, ptr %10, align 4, !tbaa !6
  br label %lean_dec.exit35

41:                                               ; preds = %36
  %.not.i40 = icmp eq i32 %37, 0
  br i1 %.not.i40, label %lean_dec.exit35, label %42

42:                                               ; preds = %41
  tail call void @lean_dec_ref_cold(ptr noundef nonnull %10) #6
  br label %lean_dec.exit35

lean_dec.exit35:                                  ; preds = %42, %41, %39, %lean_dec.exit36
  %43 = ptrtoint ptr %9 to i64
  %44 = and i64 %43, 1
  %.not62 = icmp eq i64 %44, 0
  br i1 %.not62, label %45, label %lean_dec.exit34

45:                                               ; preds = %lean_dec.exit35
  %46 = load i32, ptr %9, align 4, !tbaa !6
  %47 = icmp sgt i32 %46, 1
  br i1 %47, label %48, label %50, !prof !5

48:                                               ; preds = %45
  %49 = add nsw i32 %46, -1
  store i32 %49, ptr %9, align 4, !tbaa !6
  br label %lean_dec.exit34

50:                                               ; preds = %45
  %.not.i42 = icmp eq i32 %46, 0
  br i1 %.not.i42, label %lean_dec.exit34, label %51

51:                                               ; preds = %50
  tail call void @lean_dec_ref_cold(ptr noundef nonnull %9) #6
  br label %lean_dec.exit34

lean_dec.exit34:                                  ; preds = %51, %50, %48, %lean_dec.exit35
  %52 = ptrtoint ptr %8 to i64
  %53 = and i64 %52, 1
  %.not63 = icmp eq i64 %53, 0
  br i1 %.not63, label %54, label %lean_dec.exit33

54:                                               ; preds = %lean_dec.exit34
  %55 = load i32, ptr %8, align 4, !tbaa !6
  %56 = icmp sgt i32 %55, 1
  br i1 %56, label %57, label %59, !prof !5

57:                                               ; preds = %54
  %58 = add nsw i32 %55, -1
  store i32 %58, ptr %8, align 4, !tbaa !6
  br label %lean_dec.exit33

59:                                               ; preds = %54
  %.not.i44 = icmp eq i32 %55, 0
  br i1 %.not.i44, label %lean_dec.exit33, label %60

60:                                               ; preds = %59
  tail call void @lean_dec_ref_cold(ptr noundef nonnull %8) #6
  br label %lean_dec.exit33

lean_dec.exit33:                                  ; preds = %60, %59, %57, %lean_dec.exit34
  %61 = ptrtoint ptr %7 to i64
  %62 = and i64 %61, 1
  %.not64 = icmp eq i64 %62, 0
  br i1 %.not64, label %63, label %lean_dec.exit32

63:                                               ; preds = %lean_dec.exit33
  %64 = load i32, ptr %7, align 4, !tbaa !6
  %65 = icmp sgt i32 %64, 1
  br i1 %65, label %66, label %68, !prof !5

66:                                               ; preds = %63
  %67 = add nsw i32 %64, -1
  store i32 %67, ptr %7, align 4, !tbaa !6
  br label %lean_dec.exit32

68:                                               ; preds = %63
  %.not.i46 = icmp eq i32 %64, 0
  br i1 %.not.i46, label %lean_dec.exit32, label %69

69:                                               ; preds = %68
  tail call void @lean_dec_ref_cold(ptr noundef nonnull %7) #6
  br label %lean_dec.exit32

lean_dec.exit32:                                  ; preds = %69, %68, %66, %lean_dec.exit33
  %70 = ptrtoint ptr %6 to i64
  %71 = and i64 %70, 1
  %.not65 = icmp eq i64 %71, 0
  br i1 %.not65, label %72, label %lean_dec.exit31

72:                                               ; preds = %lean_dec.exit32
  %73 = load i32, ptr %6, align 4, !tbaa !6
  %74 = icmp sgt i32 %73, 1
  br i1 %74, label %75, label %77, !prof !5

75:                                               ; preds = %72
  %76 = add nsw i32 %73, -1
  store i32 %76, ptr %6, align 4, !tbaa !6
  br label %lean_dec.exit31

77:                                               ; preds = %72
  %.not.i48 = icmp eq i32 %73, 0
  br i1 %.not.i48, label %lean_dec.exit31, label %78

78:                                               ; preds = %77
  tail call void @lean_dec_ref_cold(ptr noundef nonnull %6) #6
  br label %lean_dec.exit31

lean_dec.exit31:                                  ; preds = %78, %77, %75, %lean_dec.exit32
  %79 = ptrtoint ptr %5 to i64
  %80 = and i64 %79, 1
  %.not66 = icmp eq i64 %80, 0
  br i1 %.not66, label %81, label %lean_dec.exit30

81:                                               ; preds = %lean_dec.exit31
  %82 = load i32, ptr %5, align 4, !tbaa !6
  %83 = icmp sgt i32 %82, 1
  br i1 %83, label %84, label %86, !prof !5

84:                                               ; preds = %81
  %85 = add nsw i32 %82, -1
  store i32 %85, ptr %5, align 4, !tbaa !6
  br label %lean_dec.exit30

86:                                               ; preds = %81
  %.not.i50 = icmp eq i32 %82, 0
  br i1 %.not.i50, label %lean_dec.exit30, label %87

87:                                               ; preds = %86
  tail call void @lean_dec_ref_cold(ptr noundef nonnull %5) #6
  br label %lean_dec.exit30

lean_dec.exit30:                                  ; preds = %87, %86, %84, %lean_dec.exit31
  %88 = ptrtoint ptr %4 to i64
  %89 = and i64 %88, 1
  %.not67 = icmp eq i64 %89, 0
  br i1 %.not67, label %90, label %lean_dec.exit29

90:                                               ; preds = %lean_dec.exit30
  %91 = load i32, ptr %4, align 4, !tbaa !6
  %92 = icmp sgt i32 %91, 1
  br i1 %92, label %93, label %95, !prof !5

93:                                               ; preds = %90
  %94 = add nsw i32 %91, -1
  store i32 %94, ptr %4, align 4, !tbaa !6
  br label %lean_dec.exit29

95:                                               ; preds = %90
  %.not.i52 = icmp eq i32 %91, 0
  br i1 %.not.i52, label %lean_dec.exit29, label %96

96:                                               ; preds = %95
  tail call void @lean_dec_ref_cold(ptr noundef nonnull %4) #6
  br label %lean_dec.exit29

lean_dec.exit29:                                  ; preds = %96, %95, %93, %lean_dec.exit30
  %97 = ptrtoint ptr %3 to i64
  %98 = and i64 %97, 1
  %.not68 = icmp eq i64 %98, 0
  br i1 %.not68, label %99, label %lean_dec.exit28

99:                                               ; preds = %lean_dec.exit29
  %100 = load i32, ptr %3, align 4, !tbaa !6
  %101 = icmp sgt i32 %100, 1
  br i1 %101, label %102, label %104, !prof !5

102:                                              ; preds = %99
  %103 = add nsw i32 %100, -1
  store i32 %103, ptr %3, align 4, !tbaa !6
  br label %lean_dec.exit28

104:                                              ; preds = %99
  %.not.i54 = icmp eq i32 %100, 0
  br i1 %.not.i54, label %lean_dec.exit28, label %105

105:                                              ; preds = %104
  tail call void @lean_dec_ref_cold(ptr noundef nonnull %3) #6
  br label %lean_dec.exit28

lean_dec.exit28:                                  ; preds = %105, %104, %102, %lean_dec.exit29
  %106 = ptrtoint ptr %2 to i64
  %107 = and i64 %106, 1
  %.not69 = icmp eq i64 %107, 0
  br i1 %.not69, label %108, label %lean_dec.exit27

108:                                              ; preds = %lean_dec.exit28
  %109 = load i32, ptr %2, align 4, !tbaa !6
  %110 = icmp sgt i32 %109, 1
  br i1 %110, label %111, label %113, !prof !5

111:                                              ; preds = %108
  %112 = add nsw i32 %109, -1
  store i32 %112, ptr %2, align 4, !tbaa !6
  br label %lean_dec.exit27

113:                                              ; preds = %108
  %.not.i56 = icmp eq i32 %109, 0
  br i1 %.not.i56, label %lean_dec.exit27, label %114

114:                                              ; preds = %113
  tail call void @lean_dec_ref_cold(ptr noundef nonnull %2) #6
  br label %lean_dec.exit27

lean_dec.exit27:                                  ; preds = %114, %113, %111, %lean_dec.exit28
  %115 = ptrtoint ptr %1 to i64
  %116 = and i64 %115, 1
  %.not70 = icmp eq i64 %116, 0
  br i1 %.not70, label %117, label %lean_dec.exit

117:                                              ; preds = %lean_dec.exit27
  %118 = load i32, ptr %1, align 4, !tbaa !6
  %119 = icmp sgt i32 %118, 1
  br i1 %119, label %120, label %122, !prof !5

120:                                              ; preds = %117
  %121 = add nsw i32 %118, -1
  store i32 %121, ptr %1, align 4, !tbaa !6
  br label %lean_dec.exit

122:                                              ; preds = %117
  %.not.i58 = icmp eq i32 %118, 0
  br i1 %.not.i58, label %lean_dec.exit, label %123

123:                                              ; preds = %122
  tail call void @lean_dec_ref_cold(ptr noundef nonnull %1) #6
  br label %lean_dec.exit

lean_dec.exit:                                    ; preds = %123, %122, %120, %lean_dec.exit27
  ret ptr %15
}